; Function Attrs: mustprogress nofree norecurse nosync nounwind willreturn memory(read, argmem: readwrite, inaccessiblemem: none) uwtable
define internal noundef i32 @H5P__facc_fclose_degree_dec(ptr noundef captures(none) %0, ptr noundef writeonly captures(none) %1) #12 {
  %3 = load i8, ptr @H5P_init_g, align 1, !tbaa !16, !range !18, !noundef !19
  %4 = trunc nuw i8 %3 to i1
  %5 = load i8, ptr @H5_libterm_g, align 1, !range !18
  %6 = trunc nuw i8 %5 to i1
  %7 = xor i1 %6, true
  %8 = select i1 %4, i1 true, i1 %7
  br i1 %8, label %9, label %14, !prof !20

9:                                                ; preds = %2
  %10 = load ptr, ptr %0, align 8, !tbaa !59
  %11 = getelementptr inbounds nuw i8, ptr %10, i64 1
  store ptr %11, ptr %0, align 8, !tbaa !59
  %12 = load i8, ptr %10, align 1, !tbaa !21
  %13 = zext i8 %12 to i32
  store i32 %13, ptr %1, align 4, !tbaa !31
  br label %14

14:                                               ; preds = %9, %2
  ret i32 0
}